; Function Attrs: mustprogress uwtable
define dso_local void @_ZN4V3Os15filesystemFlushERKNSt7__cxx1112basic_stringIcSt11char_traitsIcESaIcEEE(ptr noundef nonnull readonly align 8 captures(none) dereferenceable(32) %0) local_unnamed_addr #6 align 2 personality ptr @__gxx_personality_v0 {
  %2 = load ptr, ptr %0, align 8, !tbaa !19
  %3 = tail call ptr @opendir(ptr noundef %2)
  %.not = icmp eq ptr %3, null
  br i1 %.not, label %6, label %4

4:                                                ; preds = %1
  %5 = tail call i32 @closedir(ptr noundef nonnull %3)
  br label %12

6:                                                ; preds = %1
  %7 = load ptr, ptr %0, align 8, !tbaa !19
  %8 = tail call i32 (ptr, i32, ...) @open(ptr noundef %7, i32 noundef 0)
  %9 = icmp sgt i32 %8, 0
  br i1 %9, label %10, label %12

10:                                               ; preds = %6
  %11 = tail call i32 @close(i32 noundef %8)
  br label %12

12:                                               ; preds = %6, %10, %4
  ret void
}